target datalayout = "e-m:e-p270:32:32-p271:32:32-p272:64:64-i64:64-i128:128-f80:128-n8:16:32:64-S128"
target triple = "x86_64-pc-linux-gnu"

%struct.AVFormatContext = type { ptr, ptr, ptr, ptr, ptr, i32, i32, ptr, i32, ptr, i32, ptr, ptr, i64, i64, i64, i32, i32, i32, i64, i64, ptr, i32, i32, ptr, i32, i32, i32, i32, ptr, i64, i32, i32, %struct.AVIOInterruptCB, i32, i32, i32, i32, i64, i32, i32, i32, i32, i32, i32, i32, i32, i32, i32, i32, i32, i64, i32, i32, i32, i32, i32, ptr, ptr, ptr, ptr, i32, ptr, ptr, ptr, ptr, i32, ptr, ptr, i64, ptr, ptr, ptr, i64 }
%struct.AVIOInterruptCB = type { ptr, ptr }
%struct.WVContext = type { [32 x i8], %struct.WvHeader, i32, i32, i32, i32, i32, i32, i64, i64 }
%struct.WvHeader = type { i32, i16, i32, i32, i32, i32, i32, i32, i32 }
%struct.AVStream = type { ptr, i32, i32, ptr, ptr, %struct.AVRational, i64, i64, i64, i32, i32, %struct.AVRational, ptr, %struct.AVRational, %struct.AVPacket, i32, %struct.AVRational, i32 }
%struct.AVPacket = type { ptr, i64, i64, ptr, i32, i32, i32, ptr, i32, i64, i64, ptr, ptr, %struct.AVRational }
%struct.AVRational = type { i32, i32 }
%struct.AVCodecParameters = type { i32, i32, i32, ptr, i32, ptr, i32, i32, i64, i32, i32, i32, i32, i32, i32, %struct.AVRational, %struct.AVRational, i32, i32, i32, i32, i32, i32, i32, %struct.AVChannelLayout, i32, i32, i32, i32, i32, i32 }
%struct.AVChannelLayout = type { i32, i32, %union.anon, ptr }
%union.anon = type { i64 }
%struct.AVIOContext = type { ptr, ptr, i32, ptr, ptr, ptr, ptr, ptr, ptr, i64, i32, i32, i32, i32, i32, i64, ptr, ptr, ptr, ptr, i32, i32, ptr, ptr, ptr, i32, ptr, i64, i64 }

; Function Attrs: alwaysinline nounwind uwtable
define internal i64 @avio_tell(ptr noundef %0) #3 {
  %2 = alloca ptr, align 8
  store ptr %0, ptr %2, align 8, !tbaa !32
  %3 = load ptr, ptr %2, align 8, !tbaa !32
  %4 = call i64 @avio_seek(ptr noundef %3, i64 noundef 0, i32 noundef 1)
  ret i64 %4
}

; Function Attrs: nounwind uwtable
define internal i32 @wv_read_header(ptr noundef %0) #0 {
  %2 = alloca i32, align 4
  %3 = alloca ptr, align 8
  %4 = alloca ptr, align 8
  %5 = alloca ptr, align 8
  %6 = alloca ptr, align 8
  %7 = alloca i32, align 4
  %8 = alloca i32, align 4
  %9 = alloca i64, align 8
  store ptr %0, ptr %3, align 8, !tbaa !15
  call void @llvm.lifetime.start.p0(i64 8, ptr %4) #5
  %10 = load ptr, ptr %3, align 8, !tbaa !15
  %11 = getelementptr inbounds nuw %struct.AVFormatContext, ptr %10, i32 0, i32 4
  %12 = load ptr, ptr %11, align 8, !tbaa !17
  store ptr %12, ptr %4, align 8, !tbaa !32
  call void @llvm.lifetime.start.p0(i64 8, ptr %5) #5
  %13 = load ptr, ptr %3, align 8, !tbaa !15
  %14 = getelementptr inbounds nuw %struct.AVFormatContext, ptr %13, i32 0, i32 3
  %15 = load ptr, ptr %14, align 8, !tbaa !33
  store ptr %15, ptr %5, align 8, !tbaa !34
  call void @llvm.lifetime.start.p0(i64 8, ptr %6) #5
  call void @llvm.lifetime.start.p0(i64 4, ptr %7) #5
  %16 = load ptr, ptr %5, align 8, !tbaa !34
  %17 = getelementptr inbounds nuw %struct.WVContext, ptr %16, i32 0, i32 7
  store i32 0, ptr %17, align 8, !tbaa !36
  br label %18

18:                                               ; preds = %40, %1
  %19 = load ptr, ptr %3, align 8, !tbaa !15
  %20 = load ptr, ptr %4, align 8, !tbaa !32
  %21 = call i32 @wv_read_block_header(ptr noundef %19, ptr noundef %20)
  store i32 %21, ptr %7, align 4, !tbaa !40
  %22 = icmp slt i32 %21, 0
  br i1 %22, label %23, label %25

23:                                               ; preds = %18
  %24 = load i32, ptr %7, align 4, !tbaa !40
  store i32 %24, ptr %2, align 4
  store i32 1, ptr %8, align 4
  br label %146

25:                                               ; preds = %18
  %26 = load ptr, ptr %5, align 8, !tbaa !34
  %27 = getelementptr inbounds nuw %struct.WVContext, ptr %26, i32 0, i32 1
  %28 = getelementptr inbounds nuw %struct.WvHeader, ptr %27, i32 0, i32 4
  %29 = load i32, ptr %28, align 8, !tbaa !41
  %30 = icmp ne i32 %29, 0
  br i1 %30, label %39, label %31

31:                                               ; preds = %25
  %32 = load ptr, ptr %4, align 8, !tbaa !32
  %33 = load ptr, ptr %5, align 8, !tbaa !34
  %34 = getelementptr inbounds nuw %struct.WVContext, ptr %33, i32 0, i32 1
  %35 = getelementptr inbounds nuw %struct.WvHeader, ptr %34, i32 0, i32 0
  %36 = load i32, ptr %35, align 8, !tbaa !42
  %37 = zext i32 %36 to i64
  %38 = call i64 @avio_skip(ptr noundef %32, i64 noundef %37)
  br label %40

39:                                               ; preds = %25
  br label %41

40:                                               ; preds = %31
  br label %18

41:                                               ; preds = %39
  %42 = load ptr, ptr %3, align 8, !tbaa !15
  %43 = call ptr @avformat_new_stream(ptr noundef %42, ptr noundef null)
  store ptr %43, ptr %6, align 8, !tbaa !43
  %44 = load ptr, ptr %6, align 8, !tbaa !43
  %45 = icmp ne ptr %44, null
  br i1 %45, label %47, label %46

46:                                               ; preds = %41
  store i32 -12, ptr %2, align 4
  store i32 1, ptr %8, align 4
  br label %146

47:                                               ; preds = %41
  %48 = load ptr, ptr %6, align 8, !tbaa !43
  %49 = getelementptr inbounds nuw %struct.AVStream, ptr %48, i32 0, i32 3
  %50 = load ptr, ptr %49, align 8, !tbaa !45
  %51 = call i32 @ff_alloc_extradata(ptr noundef %50, i32 noundef 2)
  store i32 %51, ptr %7, align 4, !tbaa !40
  %52 = icmp slt i32 %51, 0
  br i1 %52, label %53, label %55

53:                                               ; preds = %47
  %54 = load i32, ptr %7, align 4, !tbaa !40
  store i32 %54, ptr %2, align 4
  store i32 1, ptr %8, align 4
  br label %146

55:                                               ; preds = %47
  %56 = load ptr, ptr %5, align 8, !tbaa !34
  %57 = getelementptr inbounds nuw %struct.WVContext, ptr %56, i32 0, i32 1
  %58 = getelementptr inbounds nuw %struct.WvHeader, ptr %57, i32 0, i32 1
  %59 = load i16, ptr %58, align 4, !tbaa !52
  %60 = load ptr, ptr %6, align 8, !tbaa !43
  %61 = getelementptr inbounds nuw %struct.AVStream, ptr %60, i32 0, i32 3
  %62 = load ptr, ptr %61, align 8, !tbaa !45
  %63 = getelementptr inbounds nuw %struct.AVCodecParameters, ptr %62, i32 0, i32 3
  %64 = load ptr, ptr %63, align 8, !tbaa !53
  store i16 %59, ptr %64, align 1, !tbaa !14
  %65 = load ptr, ptr %6, align 8, !tbaa !43
  %66 = getelementptr inbounds nuw %struct.AVStream, ptr %65, i32 0, i32 3
  %67 = load ptr, ptr %66, align 8, !tbaa !45
  %68 = getelementptr inbounds nuw %struct.AVCodecParameters, ptr %67, i32 0, i32 0
  store i32 1, ptr %68, align 8, !tbaa !56
  %69 = load ptr, ptr %6, align 8, !tbaa !43
  %70 = getelementptr inbounds nuw %struct.AVStream, ptr %69, i32 0, i32 3
  %71 = load ptr, ptr %70, align 8, !tbaa !45
  %72 = getelementptr inbounds nuw %struct.AVCodecParameters, ptr %71, i32 0, i32 1
  store i32 86041, ptr %72, align 4, !tbaa !57
  %73 = load ptr, ptr %6, align 8, !tbaa !43
  %74 = getelementptr inbounds nuw %struct.AVStream, ptr %73, i32 0, i32 3
  %75 = load ptr, ptr %74, align 8, !tbaa !45
  %76 = getelementptr inbounds nuw %struct.AVCodecParameters, ptr %75, i32 0, i32 24
  %77 = load ptr, ptr %5, align 8, !tbaa !34
  %78 = getelementptr inbounds nuw %struct.WVContext, ptr %77, i32 0, i32 5
  %79 = load i32, ptr %78, align 8, !tbaa !58
  %80 = zext i32 %79 to i64
  %81 = call i32 @av_channel_layout_from_mask(ptr noundef %76, i64 noundef %80)
  %82 = load ptr, ptr %5, align 8, !tbaa !34
  %83 = getelementptr inbounds nuw %struct.WVContext, ptr %82, i32 0, i32 2
  %84 = load i32, ptr %83, align 4, !tbaa !59
  %85 = load ptr, ptr %6, align 8, !tbaa !43
  %86 = getelementptr inbounds nuw %struct.AVStream, ptr %85, i32 0, i32 3
  %87 = load ptr, ptr %86, align 8, !tbaa !45
  %88 = getelementptr inbounds nuw %struct.AVCodecParameters, ptr %87, i32 0, i32 25
  store i32 %84, ptr %88, align 8, !tbaa !60
  %89 = load ptr, ptr %5, align 8, !tbaa !34
  %90 = getelementptr inbounds nuw %struct.WVContext, ptr %89, i32 0, i32 4
  %91 = load i32, ptr %90, align 4, !tbaa !61
  %92 = load ptr, ptr %6, align 8, !tbaa !43
  %93 = getelementptr inbounds nuw %struct.AVStream, ptr %92, i32 0, i32 3
  %94 = load ptr, ptr %93, align 8, !tbaa !45
  %95 = getelementptr inbounds nuw %struct.AVCodecParameters, ptr %94, i32 0, i32 9
  store i32 %91, ptr %95, align 8, !tbaa !62
  %96 = load ptr, ptr %6, align 8, !tbaa !43
  %97 = load ptr, ptr %5, align 8, !tbaa !34
  %98 = getelementptr inbounds nuw %struct.WVContext, ptr %97, i32 0, i32 2
  %99 = load i32, ptr %98, align 4, !tbaa !59
  call void @avpriv_set_pts_info(ptr noundef %96, i32 noundef 64, i32 noundef 1, i32 noundef %99)
  %100 = load ptr, ptr %6, align 8, !tbaa !43
  %101 = getelementptr inbounds nuw %struct.AVStream, ptr %100, i32 0, i32 6
  store i64 0, ptr %101, align 8, !tbaa !63
  %102 = load ptr, ptr %5, align 8, !tbaa !34
  %103 = getelementptr inbounds nuw %struct.WVContext, ptr %102, i32 0, i32 1
  %104 = getelementptr inbounds nuw %struct.WvHeader, ptr %103, i32 0, i32 2
  %105 = load i32, ptr %104, align 8, !tbaa !64
  %106 = icmp ne i32 %105, -1
  br i1 %106, label %107, label %115

107:                                              ; preds = %55
  %108 = load ptr, ptr %5, align 8, !tbaa !34
  %109 = getelementptr inbounds nuw %struct.WVContext, ptr %108, i32 0, i32 1
  %110 = getelementptr inbounds nuw %struct.WvHeader, ptr %109, i32 0, i32 2
  %111 = load i32, ptr %110, align 8, !tbaa !64
  %112 = zext i32 %111 to i64
  %113 = load ptr, ptr %6, align 8, !tbaa !43
  %114 = getelementptr inbounds nuw %struct.AVStream, ptr %113, i32 0, i32 7
  store i64 %112, ptr %114, align 8, !tbaa !65
  br label %115

115:                                              ; preds = %107, %55
  %116 = load ptr, ptr %3, align 8, !tbaa !15
  %117 = getelementptr inbounds nuw %struct.AVFormatContext, ptr %116, i32 0, i32 4
  %118 = load ptr, ptr %117, align 8, !tbaa !17
  %119 = getelementptr inbounds nuw %struct.AVIOContext, ptr %118, i32 0, i32 20
  %120 = load i32, ptr %119, align 8, !tbaa !66
  %121 = and i32 %120, 1
  %122 = icmp ne i32 %121, 0
  br i1 %122, label %123, label %145

123:                                              ; preds = %115
  call void @llvm.lifetime.start.p0(i64 8, ptr %9) #5
  %124 = load ptr, ptr %3, align 8, !tbaa !15
  %125 = getelementptr inbounds nuw %struct.AVFormatContext, ptr %124, i32 0, i32 4
  %126 = load ptr, ptr %125, align 8, !tbaa !17
  %127 = call i64 @avio_tell(ptr noundef %126)
  store i64 %127, ptr %9, align 8, !tbaa !68
  %128 = load ptr, ptr %3, align 8, !tbaa !15
  %129 = call i64 @ff_ape_parse_tag(ptr noundef %128)
  %130 = load ptr, ptr %5, align 8, !tbaa !34
  %131 = getelementptr inbounds nuw %struct.WVContext, ptr %130, i32 0, i32 9
  store i64 %129, ptr %131, align 8, !tbaa !69
  %132 = load ptr, ptr %3, align 8, !tbaa !15
  %133 = getelementptr inbounds nuw %struct.AVFormatContext, ptr %132, i32 0, i32 29
  %134 = load ptr, ptr %133, align 8, !tbaa !70
  %135 = call i32 @av_dict_count(ptr noundef %134)
  %136 = icmp eq i32 %135, 0
  br i1 %136, label %137, label %139

137:                                              ; preds = %123
  %138 = load ptr, ptr %3, align 8, !tbaa !15
  call void @ff_id3v1_read(ptr noundef %138)
  br label %139

139:                                              ; preds = %137, %123
  %140 = load ptr, ptr %3, align 8, !tbaa !15
  %141 = getelementptr inbounds nuw %struct.AVFormatContext, ptr %140, i32 0, i32 4
  %142 = load ptr, ptr %141, align 8, !tbaa !17
  %143 = load i64, ptr %9, align 8, !tbaa !68
  %144 = call i64 @avio_seek(ptr noundef %142, i64 noundef %143, i32 noundef 0)
  call void @llvm.lifetime.end.p0(i64 8, ptr %9) #5
  br label %145

145:                                              ; preds = %139, %115
  store i32 0, ptr %2, align 4
  store i32 1, ptr %8, align 4
  br label %146

146:                                              ; preds = %145, %53, %46, %23
  call void @llvm.lifetime.end.p0(i64 4, ptr %7) #5
  call void @llvm.lifetime.end.p0(i64 8, ptr %6) #5
  call void @llvm.lifetime.end.p0(i64 8, ptr %5) #5
  call void @llvm.lifetime.end.p0(i64 8, ptr %4) #5
  %147 = load i32, ptr %2, align 4
  ret i32 %147
}