; Function Attrs: nounwind uwtable
define internal range(i32 -2147483648, 1) i32 @wv_read_header(ptr noundef %0) #1 {
  %2 = getelementptr inbounds nuw i8, ptr %0, i64 32
  %3 = load ptr, ptr %2, align 8, !tbaa !13
  %4 = getelementptr inbounds nuw i8, ptr %0, i64 24
  %5 = load ptr, ptr %4, align 8, !tbaa !28
  %6 = getelementptr inbounds nuw i8, ptr %5, i64 88
  store i32 0, ptr %6, align 8, !tbaa !29
  %7 = tail call fastcc i32 @wv_read_block_header(ptr noundef %0, ptr noundef %3)
  %8 = icmp slt i32 %7, 0
  br i1 %8, label %.loopexit, label %.lr.ph

.lr.ph:                                           ; preds = %1
  %9 = getelementptr inbounds nuw i8, ptr %5, i64 48
  %10 = getelementptr inbounds nuw i8, ptr %5, i64 32
  br label %11

11:                                               ; preds = %.lr.ph, %13
  %12 = load i32, ptr %9, align 8, !tbaa !33
  %.not = icmp eq i32 %12, 0
  br i1 %.not, label %13, label %19

13:                                               ; preds = %11
  %14 = load i32, ptr %10, align 8, !tbaa !34
  %15 = zext i32 %14 to i64
  %16 = tail call i64 @avio_skip(ptr noundef %3, i64 noundef %15) #4
  %17 = tail call fastcc i32 @wv_read_block_header(ptr noundef %0, ptr noundef %3)
  %18 = icmp slt i32 %17, 0
  br i1 %18, label %.loopexit, label %11

19:                                               ; preds = %11
  %20 = tail call ptr @avformat_new_stream(ptr noundef %0, ptr noundef null) #4
  %.not41 = icmp eq ptr %20, null
  br i1 %.not41, label %.loopexit, label %21

21:                                               ; preds = %19
  %22 = getelementptr inbounds nuw i8, ptr %20, i64 16
  %23 = load ptr, ptr %22, align 8, !tbaa !35
  %24 = tail call i32 @ff_alloc_extradata(ptr noundef %23, i32 noundef 2) #4
  %25 = icmp slt i32 %24, 0
  br i1 %25, label %.loopexit, label %26

26:                                               ; preds = %21
  %27 = getelementptr inbounds nuw i8, ptr %5, i64 36
  %28 = load i16, ptr %27, align 4, !tbaa !42
  %29 = load ptr, ptr %22, align 8, !tbaa !35
  %30 = getelementptr inbounds nuw i8, ptr %29, i64 16
  %31 = load ptr, ptr %30, align 8, !tbaa !43
  store i16 %28, ptr %31, align 1, !tbaa !12
  %32 = load ptr, ptr %22, align 8, !tbaa !35
  store i32 1, ptr %32, align 8, !tbaa !46
  %33 = getelementptr inbounds nuw i8, ptr %32, i64 4
  store i32 86041, ptr %33, align 4, !tbaa !47
  %34 = getelementptr inbounds nuw i8, ptr %32, i64 128
  %35 = getelementptr inbounds nuw i8, ptr %5, i64 80
  %36 = load i32, ptr %35, align 8, !tbaa !48
  %37 = zext i32 %36 to i64
  %38 = tail call i32 @av_channel_layout_from_mask(ptr noundef nonnull %34, i64 noundef %37) #4
  %39 = getelementptr inbounds nuw i8, ptr %5, i64 68
  %40 = load i32, ptr %39, align 4, !tbaa !49
  %41 = load ptr, ptr %22, align 8, !tbaa !35
  %42 = getelementptr inbounds nuw i8, ptr %41, i64 152
  store i32 %40, ptr %42, align 8, !tbaa !50
  %43 = getelementptr inbounds nuw i8, ptr %5, i64 76
  %44 = load i32, ptr %43, align 4, !tbaa !51
  %45 = getelementptr inbounds nuw i8, ptr %41, i64 56
  store i32 %44, ptr %45, align 8, !tbaa !52
  tail call void @avpriv_set_pts_info(ptr noundef nonnull %20, i32 noundef 64, i32 noundef 1, i32 noundef %40) #4
  %46 = getelementptr inbounds nuw i8, ptr %20, i64 40
  store i64 0, ptr %46, align 8, !tbaa !53
  %47 = getelementptr inbounds nuw i8, ptr %5, i64 40
  %48 = load i32, ptr %47, align 8, !tbaa !54
  %.not42 = icmp eq i32 %48, -1
  br i1 %.not42, label %52, label %49

49:                                               ; preds = %26
  %50 = zext i32 %48 to i64
  %51 = getelementptr inbounds nuw i8, ptr %20, i64 48
  store i64 %50, ptr %51, align 8, !tbaa !55
  br label %52

52:                                               ; preds = %49, %26
  %53 = load ptr, ptr %2, align 8, !tbaa !13
  %54 = getelementptr inbounds nuw i8, ptr %53, i64 144
  %55 = load i32, ptr %54, align 8, !tbaa !56
  %56 = and i32 %55, 1
  %.not43 = icmp eq i32 %56, 0
  br i1 %.not43, label %.loopexit, label %57

57:                                               ; preds = %52
  %58 = tail call i64 @avio_seek(ptr noundef nonnull %53, i64 noundef 0, i32 noundef 1) #4
  %59 = tail call i64 @ff_ape_parse_tag(ptr noundef nonnull %0) #4
  %60 = getelementptr inbounds nuw i8, ptr %5, i64 104
  store i64 %59, ptr %60, align 8, !tbaa !58
  %61 = getelementptr inbounds nuw i8, ptr %0, i64 192
  %62 = load ptr, ptr %61, align 8, !tbaa !59
  %63 = tail call i32 @av_dict_count(ptr noundef %62) #4
  %64 = icmp eq i32 %63, 0
  br i1 %64, label %65, label %66

65:                                               ; preds = %57
  tail call void @ff_id3v1_read(ptr noundef nonnull %0) #4
  br label %66

66:                                               ; preds = %65, %57
  %67 = load ptr, ptr %2, align 8, !tbaa !13
  %68 = tail call i64 @avio_seek(ptr noundef %67, i64 noundef %58, i32 noundef 0) #4
  br label %.loopexit

.loopexit:                                        ; preds = %13, %1, %52, %66, %21, %19
  %.0 = phi i32 [ -12, %19 ], [ %24, %21 ], [ 0, %66 ], [ 0, %52 ], [ %7, %1 ], [ %17, %13 ]
  ret i32 %.0
}